; Function Attrs: nounwind uwtable
define hidden zeroext i1 @mi_option_is_enabled(i32 noundef %0) local_unnamed_addr #1 {
  %2 = icmp ugt i32 %0, 35
  br i1 %2, label %mi_option_get.exit, label %3

3:                                                ; preds = %1
  %4 = zext nneg i32 %0 to i64
  %5 = getelementptr inbounds nuw [36 x %struct.mi_option_desc_s], ptr @options, i64 0, i64 %4
  %6 = getelementptr inbounds nuw i8, ptr %5, i64 8
  %7 = load i32, ptr %6, align 8, !tbaa !8
  %8 = icmp eq i32 %7, 0
  br i1 %8, label %9, label %10, !prof !13

9:                                                ; preds = %3
  tail call fastcc void @mi_option_init(ptr noundef nonnull %5) #17
  br label %10

10:                                               ; preds = %9, %3
  %11 = load i64, ptr %5, align 16, !tbaa !14
  %12 = icmp ne i64 %11, 0
  br label %mi_option_get.exit

mi_option_get.exit:                               ; preds = %1, %10
  %.0.i = phi i1 [ %12, %10 ], [ false, %1 ]
  ret i1 %.0.i
}